; Function Attrs: mustprogress nofree norecurse nosync nounwind willreturn memory(argmem: readwrite) uwtable
define void @_ZN6icu_7710Normalizer11clearBufferEv(ptr noundef nonnull align 8 captures(none) dereferenceable(116) initializes((112, 116)) %0) local_unnamed_addr #7 align 2 {
  %2 = getelementptr inbounds nuw i8, ptr %0, i64 56
  %3 = load i16, ptr %2, align 8, !tbaa !22
  %4 = and i16 %3, 1
  %.not.i = icmp eq i16 %4, 0
  %5 = and i16 %3, 30
  %storemerge.i = select i1 %.not.i, i16 %5, i16 2
  store i16 %storemerge.i, ptr %2, align 8, !tbaa !22
  %6 = getelementptr inbounds nuw i8, ptr %0, i64 112
  store i32 0, ptr %6, align 8, !tbaa !23
  ret void
}